target datalayout = "e-m:e-p270:32:32-p271:32:32-p272:64:64-i64:64-i128:128-f80:128-n8:16:32:64-S128"
target triple = "x86_64-pc-linux-gnu"

%"class.Ipopt::ReferencedObject.base" = type <{ ptr, i32 }>
%"class.Ipopt::CompoundMatrixSpace" = type <{ %"class.Ipopt::MatrixSpace.base", i32, i32, i8, [3 x i8], %"class.std::vector.10", %"class.std::vector.15", %"class.std::vector.20", %"class.std::vector.20", i8, [7 x i8] }>
%"class.Ipopt::MatrixSpace.base" = type { %"class.Ipopt::ReferencedObject.base", i32, i32 }
%"class.std::vector.10" = type { %"struct.std::_Vector_base.11" }
%"struct.std::_Vector_base.11" = type { %"struct.std::_Vector_base<std::vector<Ipopt::SmartPtr<const Ipopt::MatrixSpace>>, std::allocator<std::vector<Ipopt::SmartPtr<const Ipopt::MatrixSpace>>>>::_Vector_impl" }
%"struct.std::_Vector_base<std::vector<Ipopt::SmartPtr<const Ipopt::MatrixSpace>>, std::allocator<std::vector<Ipopt::SmartPtr<const Ipopt::MatrixSpace>>>>::_Vector_impl" = type { %"struct.std::_Vector_base<std::vector<Ipopt::SmartPtr<const Ipopt::MatrixSpace>>, std::allocator<std::vector<Ipopt::SmartPtr<const Ipopt::MatrixSpace>>>>::_Vector_impl_data" }
%"struct.std::_Vector_base<std::vector<Ipopt::SmartPtr<const Ipopt::MatrixSpace>>, std::allocator<std::vector<Ipopt::SmartPtr<const Ipopt::MatrixSpace>>>>::_Vector_impl_data" = type { ptr, ptr, ptr }
%"class.std::vector.15" = type { %"struct.std::_Vector_base.16" }
%"struct.std::_Vector_base.16" = type { %"struct.std::_Vector_base<std::vector<bool>, std::allocator<std::vector<bool>>>::_Vector_impl" }
%"struct.std::_Vector_base<std::vector<bool>, std::allocator<std::vector<bool>>>::_Vector_impl" = type { %"struct.std::_Vector_base<std::vector<bool>, std::allocator<std::vector<bool>>>::_Vector_impl_data" }
%"struct.std::_Vector_base<std::vector<bool>, std::allocator<std::vector<bool>>>::_Vector_impl_data" = type { ptr, ptr, ptr }
%"class.std::vector.20" = type { %"struct.std::_Vector_base.21" }
%"struct.std::_Vector_base.21" = type { %"struct.std::_Vector_base<int, std::allocator<int>>::_Vector_impl" }
%"struct.std::_Vector_base<int, std::allocator<int>>::_Vector_impl" = type { %"struct.std::_Vector_base<int, std::allocator<int>>::_Vector_impl_data" }
%"struct.std::_Vector_base<int, std::allocator<int>>::_Vector_impl_data" = type { ptr, ptr, ptr }

; Function Attrs: mustprogress nounwind uwtable
define linkonce_odr noundef nonnull align 4 dereferenceable(4) ptr @_ZNKSt6vectorIiSaIiEEixEm(ptr noundef nonnull align 8 dereferenceable(24) %0, i64 noundef %1) #1 comdat align 2 {
  %3 = alloca ptr, align 8
  %4 = alloca i64, align 8
  store ptr %0, ptr %3, align 8
  store i64 %1, ptr %4, align 8
  %5 = load ptr, ptr %3, align 8
  %6 = getelementptr inbounds %"struct.std::_Vector_base.21", ptr %5, i32 0, i32 0
  %7 = getelementptr inbounds %"struct.std::_Vector_base<int, std::allocator<int>>::_Vector_impl_data", ptr %6, i32 0, i32 0
  %8 = load ptr, ptr %7, align 8
  %9 = load i64, ptr %4, align 8
  %10 = getelementptr inbounds i32, ptr %8, i64 %9
  ret ptr %10
}

; Function Attrs: mustprogress nounwind uwtable
define noundef zeroext i1 @_ZNK5Ipopt19CompoundMatrixSpace13DimensionsSetEv(ptr noundef nonnull align 8 dereferenceable(129) %0) #1 align 2 {
  %2 = alloca ptr, align 8
  %3 = alloca i8, align 1
  %4 = alloca i32, align 4
  %5 = alloca i32, align 4
  store ptr %0, ptr %2, align 8
  %6 = load ptr, ptr %2, align 8
  store i8 1, ptr %3, align 1
  store i32 0, ptr %4, align 4
  br label %7

7:                                                ; preds = %21, %1
  %8 = load i32, ptr %4, align 4
  %9 = getelementptr inbounds %"class.Ipopt::CompoundMatrixSpace", ptr %6, i32 0, i32 1
  %10 = load i32, ptr %9, align 4
  %11 = icmp slt i32 %8, %10
  br i1 %11, label %12, label %24

12:                                               ; preds = %7
  %13 = getelementptr inbounds %"class.Ipopt::CompoundMatrixSpace", ptr %6, i32 0, i32 7
  %14 = load i32, ptr %4, align 4
  %15 = sext i32 %14 to i64
  %16 = call noundef nonnull align 4 dereferenceable(4) ptr @_ZNKSt6vectorIiSaIiEEixEm(ptr noundef nonnull align 8 dereferenceable(24) %13, i64 noundef %15) #13
  %17 = load i32, ptr %16, align 4
  %18 = icmp eq i32 %17, -1
  br i1 %18, label %19, label %20

19:                                               ; preds = %12
  store i8 0, ptr %3, align 1
  br label %24

20:                                               ; preds = %12
  br label %21

21:                                               ; preds = %20
  %22 = load i32, ptr %4, align 4
  %23 = add nsw i32 %22, 1
  store i32 %23, ptr %4, align 4
  br label %7, !llvm.loop !29

24:                                               ; preds = %19, %7
  %25 = load i8, ptr %3, align 1
  %26 = trunc i8 %25 to i1
  br i1 %26, label %27, label %46

27:                                               ; preds = %24
  store i32 0, ptr %5, align 4
  br label %28

28:                                               ; preds = %42, %27
  %29 = load i32, ptr %5, align 4
  %30 = getelementptr inbounds %"class.Ipopt::CompoundMatrixSpace", ptr %6, i32 0, i32 2
  %31 = load i32, ptr %30, align 8
  %32 = icmp slt i32 %29, %31
  br i1 %32, label %33, label %45

33:                                               ; preds = %28
  %34 = getelementptr inbounds %"class.Ipopt::CompoundMatrixSpace", ptr %6, i32 0, i32 8
  %35 = load i32, ptr %5, align 4
  %36 = sext i32 %35 to i64
  %37 = call noundef nonnull align 4 dereferenceable(4) ptr @_ZNKSt6vectorIiSaIiEEixEm(ptr noundef nonnull align 8 dereferenceable(24) %34, i64 noundef %36) #13
  %38 = load i32, ptr %37, align 4
  %39 = icmp eq i32 %38, -1
  br i1 %39, label %40, label %41

40:                                               ; preds = %33
  store i8 0, ptr %3, align 1
  br label %45

41:                                               ; preds = %33
  br label %42

42:                                               ; preds = %41
  %43 = load i32, ptr %5, align 4
  %44 = add nsw i32 %43, 1
  store i32 %44, ptr %5, align 4
  br label %28, !llvm.loop !30

45:                                               ; preds = %40, %28
  br label %46

46:                                               ; preds = %45, %24
  %47 = load i8, ptr %3, align 1
  %48 = trunc i8 %47 to i1
  br i1 %48, label %49, label %50

49:                                               ; preds = %46
  br label %50

50:                                               ; preds = %49, %46
  %51 = load i8, ptr %3, align 1
  %52 = trunc i8 %51 to i1
  ret i1 %52
}