; Function Attrs: mustprogress nofree norecurse nosync nounwind willreturn memory(read, inaccessiblemem: none) uwtable
define noundef zeroext i1 @_ZNK5Ipopt19CompoundMatrixSpace13DimensionsSetEv(ptr nocapture noundef nonnull readonly align 8 dereferenceable(129) %0) local_unnamed_addr #8 align 2 {
  %2 = getelementptr inbounds i8, ptr %0, i64 20
  %3 = load i32, ptr %2, align 4
  %4 = icmp sgt i32 %3, 0
  br i1 %4, label %.lr.ph, label %.preheader

.lr.ph:                                           ; preds = %1
  %5 = getelementptr inbounds i8, ptr %0, i64 80
  %6 = load ptr, ptr %5, align 8
  %wide.trip.count = zext nneg i32 %3 to i64
  br label %13

7:                                                ; preds = %13
  %indvars.iv.next = add nuw nsw i64 %indvars.iv, 1
  %exitcond.not = icmp eq i64 %indvars.iv.next, %wide.trip.count
  br i1 %exitcond.not, label %.preheader, label %13, !llvm.loop !95

.preheader:                                       ; preds = %7, %1
  %8 = getelementptr inbounds i8, ptr %0, i64 24
  %9 = load i32, ptr %8, align 8
  %10 = icmp sgt i32 %9, 0
  br i1 %10, label %.lr.ph15, label %.thread

.lr.ph15:                                         ; preds = %.preheader
  %11 = getelementptr inbounds i8, ptr %0, i64 104
  %12 = load ptr, ptr %11, align 8
  %wide.trip.count23 = zext nneg i32 %9 to i64
  br label %17

13:                                               ; preds = %.lr.ph, %7
  %indvars.iv = phi i64 [ 0, %.lr.ph ], [ %indvars.iv.next, %7 ]
  %14 = getelementptr inbounds i32, ptr %6, i64 %indvars.iv
  %15 = load i32, ptr %14, align 4
  %16 = icmp eq i32 %15, -1
  br i1 %16, label %.thread, label %7

17:                                               ; preds = %17, %.lr.ph15
  %indvars.iv20 = phi i64 [ 0, %.lr.ph15 ], [ %indvars.iv.next21, %17 ]
  %18 = getelementptr inbounds i32, ptr %12, i64 %indvars.iv20
  %19 = load i32, ptr %18, align 4
  %.not = icmp ne i32 %19, -1
  %indvars.iv.next21 = add nuw nsw i64 %indvars.iv20, 1
  %exitcond24.not = icmp ne i64 %indvars.iv.next21, %wide.trip.count23
  %or.cond.not = select i1 %.not, i1 %exitcond24.not, i1 false
  br i1 %or.cond.not, label %17, label %.thread, !llvm.loop !96

.thread:                                          ; preds = %13, %17, %.preheader
  %20 = phi i1 [ true, %.preheader ], [ %.not, %17 ], [ false, %13 ]
  ret i1 %20
}